target datalayout = "e-m:e-p270:32:32-p271:32:32-p272:64:64-i64:64-i128:128-f80:128-n8:16:32:64-S128"
target triple = "x86_64-pc-linux-gnu"

@.str.10 = private unnamed_addr constant [6 x i8] c"WEnvh\00", align 1
@globalUtilOptind = external global i32, align 4
@.str.11 = private unnamed_addr constant [73 x i8] c"Command line switch \22-W\22 should be followed by a floating point number.\0A\00", align 1
@.str.12 = private unnamed_addr constant [61 x i8] c"Command line switch \22-E\22 should be followed by a file name.\0A\00", align 1
@.str.13 = private unnamed_addr constant [10 x i8] c"open_path\00", align 1
@.str.14 = private unnamed_addr constant [2 x i8] c"r\00", align 1
@.str.15 = private unnamed_addr constant [30 x i8] c"Cannot open input file \22%s\22. \00", align 1
@.str.16 = private unnamed_addr constant [8 x i8] c".genlib\00", align 1
@.str.17 = private unnamed_addr constant [5 x i8] c".lib\00", align 1
@.str.18 = private unnamed_addr constant [5 x i8] c".scl\00", align 1
@.str.19 = private unnamed_addr constant [3 x i8] c".g\00", align 1
@.str.20 = private unnamed_addr constant [19 x i8] c"Did you mean \22%s\22?\00", align 1
@.str.21 = private unnamed_addr constant [2 x i8] c"\0A\00", align 1
@.str.22 = private unnamed_addr constant [36 x i8] c"Reading genlib library has failed.\0A\00", align 1
@.str.23 = private unnamed_addr constant [54 x i8] c"Entered genlib library with %d gates from file \22%s\22.\0A\00", align 1
@.str.24 = private unnamed_addr constant [43 x i8] c"Reading second genlib library has failed.\0A\00", align 1
@.str.25 = private unnamed_addr constant [52 x i8] c"usage: read_genlib [-W float] [-E filename] [-nvh]\0A\00", align 1
@.str.26 = private unnamed_addr constant [49 x i8] c"\09           read the library from a genlib file\0A\00", align 1
@.str.27 = private unnamed_addr constant [57 x i8] c"\09           (if the library contains more than one gate\0A\00", align 1
@.str.28 = private unnamed_addr constant [59 x i8] c"\09           with the same Boolean function, only the gate\0A\00", align 1
@.str.29 = private unnamed_addr constant [50 x i8] c"\09           with the smallest area will be used)\0A\00", align 1
@.str.30 = private unnamed_addr constant [73 x i8] c"\09-W float : wire delay (added to pin-to-pin gate delays) [default = %g]\0A\00", align 1
@.str.31 = private unnamed_addr constant [70 x i8] c"\09-E file :  the file name with gates to be excluded [default = none]\0A\00", align 1
@.str.32 = private unnamed_addr constant [77 x i8] c"\09-n       : toggle replacing gate/pin names by short strings [default = %s]\0A\00", align 1
@.str.33 = private unnamed_addr constant [4 x i8] c"yes\00", align 1
@.str.34 = private unnamed_addr constant [3 x i8] c"no\00", align 1
@.str.35 = private unnamed_addr constant [52 x i8] c"\09-v       : toggle verbose printout [default = %s]\0A\00", align 1
@.str.36 = private unnamed_addr constant [35 x i8] c"\09-h       : enable verbose output\0A\00", align 1

; Function Attrs: nounwind uwtable
define internal i32 @Mio_CommandReadGenlib(ptr noundef %0, i32 noundef %1, ptr noundef %2) #0 {
  %4 = alloca i32, align 4
  %5 = alloca ptr, align 8
  %6 = alloca i32, align 4
  %7 = alloca ptr, align 8
  %8 = alloca ptr, align 8
  %9 = alloca ptr, align 8
  %10 = alloca ptr, align 8
  %11 = alloca ptr, align 8
  %12 = alloca ptr, align 8
  %13 = alloca ptr, align 8
  %14 = alloca ptr, align 8
  %15 = alloca double, align 8
  %16 = alloca i32, align 4
  %17 = alloca i32, align 4
  %18 = alloca i32, align 4
  store ptr %0, ptr %5, align 8
  store i32 %1, ptr %6, align 4
  store ptr %2, ptr %7, align 8
  store ptr null, ptr %14, align 8
  store double 0.000000e+00, ptr %15, align 8
  store i32 0, ptr %16, align 4
  store i32 1, ptr %18, align 4
  %19 = load ptr, ptr %5, align 8
  %20 = call ptr @Abc_FrameReadOut(ptr noundef %19)
  store ptr %20, ptr %9, align 8
  %21 = load ptr, ptr %5, align 8
  %22 = call ptr @Abc_FrameReadErr(ptr noundef %21)
  store ptr %22, ptr %10, align 8
  call void (...) @Extra_UtilGetoptReset()
  br label %23

23:                                               ; preds = %71, %3
  %24 = load i32, ptr %6, align 4
  %25 = load ptr, ptr %7, align 8
  %26 = call i32 @Extra_UtilGetopt(i32 noundef %24, ptr noundef %25, ptr noundef @.str.10)
  store i32 %26, ptr %17, align 4
  %27 = icmp ne i32 %26, -1
  br i1 %27, label %28, label %72

28:                                               ; preds = %23
  %29 = load i32, ptr %17, align 4
  switch i32 %29, label %70 [
    i32 87, label %30
    i32 69, label %50
    i32 110, label %63
    i32 118, label %66
    i32 104, label %69
  ]

30:                                               ; preds = %28
  %31 = load i32, ptr @globalUtilOptind, align 4
  %32 = load i32, ptr %6, align 4
  %33 = icmp sge i32 %31, %32
  br i1 %33, label %34, label %35

34:                                               ; preds = %30
  call void (i32, ptr, ...) @Abc_Print(i32 noundef -1, ptr noundef @.str.11)
  br label %143

35:                                               ; preds = %30
  %36 = load ptr, ptr %7, align 8
  %37 = load i32, ptr @globalUtilOptind, align 4
  %38 = sext i32 %37 to i64
  %39 = getelementptr inbounds ptr, ptr %36, i64 %38
  %40 = load ptr, ptr %39, align 8
  %41 = call double @atof(ptr noundef %40) #5
  %42 = fptrunc double %41 to float
  %43 = fpext float %42 to double
  store double %43, ptr %15, align 8
  %44 = load i32, ptr @globalUtilOptind, align 4
  %45 = add nsw i32 %44, 1
  store i32 %45, ptr @globalUtilOptind, align 4
  %46 = load double, ptr %15, align 8
  %47 = fcmp ole double %46, 0.000000e+00
  br i1 %47, label %48, label %49

48:                                               ; preds = %35
  br label %143

49:                                               ; preds = %35
  br label %71

50:                                               ; preds = %28
  %51 = load i32, ptr @globalUtilOptind, align 4
  %52 = load i32, ptr %6, align 4
  %53 = icmp sge i32 %51, %52
  br i1 %53, label %54, label %55

54:                                               ; preds = %50
  call void (i32, ptr, ...) @Abc_Print(i32 noundef -1, ptr noundef @.str.12)
  br label %143

55:                                               ; preds = %50
  %56 = load ptr, ptr %7, align 8
  %57 = load i32, ptr @globalUtilOptind, align 4
  %58 = sext i32 %57 to i64
  %59 = getelementptr inbounds ptr, ptr %56, i64 %58
  %60 = load ptr, ptr %59, align 8
  store ptr %60, ptr %14, align 8
  %61 = load i32, ptr @globalUtilOptind, align 4
  %62 = add nsw i32 %61, 1
  store i32 %62, ptr @globalUtilOptind, align 4
  br label %71

63:                                               ; preds = %28
  %64 = load i32, ptr %16, align 4
  %65 = xor i32 %64, 1
  store i32 %65, ptr %16, align 4
  br label %71

66:                                               ; preds = %28
  %67 = load i32, ptr %18, align 4
  %68 = xor i32 %67, 1
  store i32 %68, ptr %18, align 4
  br label %71

69:                                               ; preds = %28
  br label %143

70:                                               ; preds = %28
  br label %143

71:                                               ; preds = %66, %63, %55, %49
  br label %23, !llvm.loop !4

72:                                               ; preds = %23
  %73 = load i32, ptr %6, align 4
  %74 = load i32, ptr @globalUtilOptind, align 4
  %75 = add nsw i32 %74, 1
  %76 = icmp ne i32 %73, %75
  br i1 %76, label %77, label %78

77:                                               ; preds = %72
  br label %143

78:                                               ; preds = %72
  %79 = load ptr, ptr %7, align 8
  %80 = load i32, ptr @globalUtilOptind, align 4
  %81 = sext i32 %80 to i64
  %82 = getelementptr inbounds ptr, ptr %79, i64 %81
  %83 = load ptr, ptr %82, align 8
  store ptr %83, ptr %13, align 8
  %84 = load ptr, ptr %13, align 8
  %85 = call ptr @Io_FileOpen(ptr noundef %84, ptr noundef @.str.13, ptr noundef @.str.14, i32 noundef 0)
  store ptr %85, ptr %8, align 8
  %86 = icmp eq ptr %85, null
  br i1 %86, label %87, label %101

87:                                               ; preds = %78
  %88 = load ptr, ptr %10, align 8
  %89 = load ptr, ptr %13, align 8
  %90 = call i32 (ptr, ptr, ...) @fprintf(ptr noundef %88, ptr noundef @.str.15, ptr noundef %89) #6
  %91 = load ptr, ptr %13, align 8
  %92 = call ptr @Extra_FileGetSimilarName(ptr noundef %91, ptr noundef @.str.16, ptr noundef @.str.17, ptr noundef @.str.18, ptr noundef @.str.19, ptr noundef null)
  store ptr %92, ptr %13, align 8
  %93 = icmp ne ptr %92, null
  br i1 %93, label %94, label %98

94:                                               ; preds = %87
  %95 = load ptr, ptr %10, align 8
  %96 = load ptr, ptr %13, align 8
  %97 = call i32 (ptr, ptr, ...) @fprintf(ptr noundef %95, ptr noundef @.str.20, ptr noundef %96) #6
  br label %98

98:                                               ; preds = %94, %87
  %99 = load ptr, ptr %10, align 8
  %100 = call i32 (ptr, ptr, ...) @fprintf(ptr noundef %99, ptr noundef @.str.21) #6
  store i32 1, ptr %4, align 4
  br label %171

101:                                              ; preds = %78
  %102 = load ptr, ptr %8, align 8
  %103 = call i32 @fclose(ptr noundef %102)
  %104 = load ptr, ptr %13, align 8
  %105 = load ptr, ptr %14, align 8
  %106 = load i32, ptr %18, align 4
  %107 = call ptr @Mio_LibraryRead(ptr noundef %104, ptr noundef null, ptr noundef %105, i32 noundef %106)
  store ptr %107, ptr %11, align 8
  %108 = load ptr, ptr %11, align 8
  %109 = icmp eq ptr %108, null
  br i1 %109, label %110, label %113

110:                                              ; preds = %101
  %111 = load ptr, ptr %10, align 8
  %112 = call i32 (ptr, ptr, ...) @fprintf(ptr noundef %111, ptr noundef @.str.22) #6
  store i32 1, ptr %4, align 4
  br label %171

113:                                              ; preds = %101
  %114 = load i32, ptr %18, align 4
  %115 = icmp ne i32 %114, 0
  br i1 %115, label %116, label %121

116:                                              ; preds = %113
  %117 = load ptr, ptr %11, align 8
  %118 = call i32 @Mio_LibraryReadGateNum(ptr noundef %117)
  %119 = load ptr, ptr %13, align 8
  %120 = call i32 (ptr, ...) @printf(ptr noundef @.str.23, i32 noundef %118, ptr noundef %119)
  br label %121

121:                                              ; preds = %116, %113
  %122 = load i32, ptr %16, align 4
  %123 = icmp ne i32 %122, 0
  br i1 %123, label %124, label %126

124:                                              ; preds = %121
  %125 = load ptr, ptr %11, align 8
  call void @Mio_LibraryShortNames(ptr noundef %125)
  br label %126

126:                                              ; preds = %124, %121
  %127 = load double, ptr %15, align 8
  %128 = fcmp une double %127, 0.000000e+00
  br i1 %128, label %129, label %132

129:                                              ; preds = %126
  %130 = load ptr, ptr %11, align 8
  %131 = load double, ptr %15, align 8
  call void @Mio_LibraryShiftDelay(ptr noundef %130, double noundef %131)
  br label %132

132:                                              ; preds = %129, %126
  %133 = load ptr, ptr %11, align 8
  call void @Mio_UpdateGenlib(ptr noundef %133)
  %134 = load ptr, ptr %13, align 8
  %135 = call ptr @Amap_LibReadAndPrepare(ptr noundef %134, ptr noundef null, i32 noundef 0, i32 noundef 0)
  store ptr %135, ptr %12, align 8
  %136 = load ptr, ptr %12, align 8
  %137 = icmp eq ptr %136, null
  br i1 %137, label %138, label %141

138:                                              ; preds = %132
  %139 = load ptr, ptr %10, align 8
  %140 = call i32 (ptr, ptr, ...) @fprintf(ptr noundef %139, ptr noundef @.str.24) #6
  store i32 1, ptr %4, align 4
  br label %171

141:                                              ; preds = %132
  %142 = load ptr, ptr %12, align 8
  call void @Abc_FrameSetLibGen2(ptr noundef %142)
  store i32 0, ptr %4, align 4
  br label %171

143:                                              ; preds = %77, %70, %69, %54, %48, %34
  %144 = load ptr, ptr %10, align 8
  %145 = call i32 (ptr, ptr, ...) @fprintf(ptr noundef %144, ptr noundef @.str.25) #6
  %146 = load ptr, ptr %10, align 8
  %147 = call i32 (ptr, ptr, ...) @fprintf(ptr noundef %146, ptr noundef @.str.26) #6
  %148 = load ptr, ptr %10, align 8
  %149 = call i32 (ptr, ptr, ...) @fprintf(ptr noundef %148, ptr noundef @.str.27) #6
  %150 = load ptr, ptr %10, align 8
  %151 = call i32 (ptr, ptr, ...) @fprintf(ptr noundef %150, ptr noundef @.str.28) #6
  %152 = load ptr, ptr %10, align 8
  %153 = call i32 (ptr, ptr, ...) @fprintf(ptr noundef %152, ptr noundef @.str.29) #6
  %154 = load ptr, ptr %10, align 8
  %155 = load double, ptr %15, align 8
  %156 = call i32 (ptr, ptr, ...) @fprintf(ptr noundef %154, ptr noundef @.str.30, double noundef %155) #6
  %157 = load ptr, ptr %10, align 8
  %158 = call i32 (ptr, ptr, ...) @fprintf(ptr noundef %157, ptr noundef @.str.31) #6
  %159 = load ptr, ptr %10, align 8
  %160 = load i32, ptr %16, align 4
  %161 = icmp ne i32 %160, 0
  %162 = select i1 %161, ptr @.str.33, ptr @.str.34
  %163 = call i32 (ptr, ptr, ...) @fprintf(ptr noundef %159, ptr noundef @.str.32, ptr noundef %162) #6
  %164 = load ptr, ptr %10, align 8
  %165 = load i32, ptr %18, align 4
  %166 = icmp ne i32 %165, 0
  %167 = select i1 %166, ptr @.str.33, ptr @.str.34
  %168 = call i32 (ptr, ptr, ...) @fprintf(ptr noundef %164, ptr noundef @.str.35, ptr noundef %167) #6
  %169 = load ptr, ptr %10, align 8
  %170 = call i32 (ptr, ptr, ...) @fprintf(ptr noundef %169, ptr noundef @.str.36) #6
  store i32 1, ptr %4, align 4
  br label %171

171:                                              ; preds = %143, %141, %138, %110, %98
  %172 = load i32, ptr %4, align 4
  ret i32 %172
}