; Function Attrs: nounwind uwtable
define internal range(i32 0, 2) i32 @Mio_CommandReadGenlib(ptr noundef %0, i32 noundef %1, ptr noundef %2) #0 {
  %4 = tail call ptr @Abc_FrameReadOut(ptr noundef %0) #8
  %5 = tail call ptr @Abc_FrameReadErr(ptr noundef %0) #8
  tail call void (...) @Extra_UtilGetoptReset() #8
  br label %.outer

.outer:                                           ; preds = %21, %3
  %.058.ph = phi ptr [ %24, %21 ], [ null, %3 ]
  %.056.ph = phi double [ %.056.ph130, %21 ], [ 0.000000e+00, %3 ]
  %.054.ph = phi i32 [ %.054.ph134, %21 ], [ 0, %3 ]
  %.0.ph = phi i32 [ %.0, %21 ], [ 1, %3 ]
  br label %.outer129

.outer129:                                        ; preds = %.outer, %10
  %.056.ph130 = phi double [ %.056.ph, %.outer ], [ %16, %10 ]
  %.054.ph131 = phi i32 [ %.054.ph, %.outer ], [ %.054.ph134, %10 ]
  %.0.ph132 = phi i32 [ %.0.ph, %.outer ], [ %.0, %10 ]
  br label %.outer133

.outer133:                                        ; preds = %.outer129, %26
  %.054.ph134 = phi i32 [ %.054.ph131, %.outer129 ], [ %27, %26 ]
  %.0.ph135 = phi i32 [ %.0.ph132, %.outer129 ], [ %.0, %26 ]
  br label %6

6:                                                ; preds = %.outer133, %28
  %.0 = phi i32 [ %29, %28 ], [ %.0.ph135, %.outer133 ]
  %7 = tail call i32 @Extra_UtilGetopt(i32 noundef %1, ptr noundef %2, ptr noundef nonnull @.str.10) #8
  switch i32 %7, label %.loopexit [
    i32 -1, label %30
    i32 87, label %8
    i32 69, label %19
    i32 110, label %26
    i32 118, label %28
  ]

8:                                                ; preds = %6
  %9 = load i32, ptr @globalUtilOptind, align 4
  %.not74 = icmp slt i32 %9, %1
  br i1 %.not74, label %10, label %.loopexit.sink.split

10:                                               ; preds = %8
  %11 = sext i32 %9 to i64
  %12 = getelementptr inbounds ptr, ptr %2, i64 %11
  %13 = load ptr, ptr %12, align 8
  %14 = tail call double @atof(ptr noundef %13) #9
  %15 = fptrunc double %14 to float
  %16 = fpext float %15 to double
  %17 = add nsw i32 %9, 1
  store i32 %17, ptr @globalUtilOptind, align 4
  %18 = fcmp ugt float %15, 0.000000e+00
  br i1 %18, label %.outer129, label %.loopexit, !llvm.loop !4

19:                                               ; preds = %6
  %20 = load i32, ptr @globalUtilOptind, align 4
  %.not73 = icmp slt i32 %20, %1
  br i1 %.not73, label %21, label %.loopexit.sink.split

21:                                               ; preds = %19
  %22 = sext i32 %20 to i64
  %23 = getelementptr inbounds ptr, ptr %2, i64 %22
  %24 = load ptr, ptr %23, align 8
  %25 = add nsw i32 %20, 1
  store i32 %25, ptr @globalUtilOptind, align 4
  br label %.outer, !llvm.loop !4

26:                                               ; preds = %6
  %27 = xor i32 %.054.ph134, 1
  br label %.outer133, !llvm.loop !4

28:                                               ; preds = %6
  %29 = xor i32 %.0, 1
  br label %6, !llvm.loop !4

30:                                               ; preds = %6
  %31 = load i32, ptr @globalUtilOptind, align 4
  %32 = add nsw i32 %31, 1
  %.not69 = icmp eq i32 %1, %32
  br i1 %.not69, label %33, label %.loopexit

33:                                               ; preds = %30
  %34 = sext i32 %31 to i64
  %35 = getelementptr inbounds ptr, ptr %2, i64 %34
  %36 = load ptr, ptr %35, align 8
  %37 = tail call ptr @Io_FileOpen(ptr noundef %36, ptr noundef nonnull @.str.13, ptr noundef nonnull @.str.14, i32 noundef 0) #8
  %38 = icmp eq ptr %37, null
  br i1 %38, label %39, label %45

39:                                               ; preds = %33
  %40 = tail call i32 (ptr, ptr, ...) @fprintf(ptr noundef %5, ptr noundef nonnull @.str.15, ptr noundef %36) #8
  %41 = tail call ptr @Extra_FileGetSimilarName(ptr noundef %36, ptr noundef nonnull @.str.16, ptr noundef nonnull @.str.17, ptr noundef nonnull @.str.18, ptr noundef nonnull @.str.19, ptr noundef null) #8
  %.not72 = icmp eq ptr %41, null
  br i1 %.not72, label %44, label %42

42:                                               ; preds = %39
  %43 = tail call i32 (ptr, ptr, ...) @fprintf(ptr noundef %5, ptr noundef nonnull @.str.20, ptr noundef nonnull %41) #8
  br label %44

44:                                               ; preds = %42, %39
  %fputc = tail call i32 @fputc(i32 10, ptr %5)
  br label %78

45:                                               ; preds = %33
  %46 = tail call i32 @fclose(ptr noundef nonnull %37)
  %47 = tail call ptr @Mio_LibraryRead(ptr noundef %36, ptr noundef null, ptr noundef %.058.ph, i32 noundef %.0) #8
  %48 = icmp eq ptr %47, null
  br i1 %48, label %49, label %51

49:                                               ; preds = %45
  %50 = tail call i64 @fwrite(ptr nonnull @.str.22, i64 35, i64 1, ptr %5)
  br label %78

51:                                               ; preds = %45
  %.not70 = icmp eq i32 %.0, 0
  br i1 %.not70, label %55, label %52

52:                                               ; preds = %51
  %53 = tail call i32 @Mio_LibraryReadGateNum(ptr noundef nonnull %47) #8
  %54 = tail call i32 (ptr, ...) @printf(ptr noundef nonnull dereferenceable(1) @.str.23, i32 noundef %53, ptr noundef %36)
  br label %55

55:                                               ; preds = %52, %51
  %.not71 = icmp eq i32 %.054.ph134, 0
  br i1 %.not71, label %57, label %56

56:                                               ; preds = %55
  tail call void @Mio_LibraryShortNames(ptr noundef nonnull %47) #8
  br label %57

57:                                               ; preds = %56, %55
  %58 = fcmp une double %.056.ph130, 0.000000e+00
  br i1 %58, label %59, label %60

59:                                               ; preds = %57
  tail call void @Mio_LibraryShiftDelay(ptr noundef nonnull %47, double noundef %.056.ph130) #8
  br label %60

60:                                               ; preds = %59, %57
  tail call void @Mio_UpdateGenlib(ptr noundef nonnull %47)
  %61 = tail call ptr @Amap_LibReadAndPrepare(ptr noundef %36, ptr noundef null, i32 noundef 0, i32 noundef 0) #8
  %62 = icmp eq ptr %61, null
  br i1 %62, label %63, label %65

63:                                               ; preds = %60
  %64 = tail call i64 @fwrite(ptr nonnull @.str.24, i64 42, i64 1, ptr %5)
  br label %78

65:                                               ; preds = %60
  tail call void @Abc_FrameSetLibGen2(ptr noundef nonnull %61) #8
  br label %78

.loopexit.sink.split:                             ; preds = %19, %8
  %.str.12.sink = phi ptr [ @.str.11, %8 ], [ @.str.12, %19 ]
  tail call void (i32, ptr, ...) @Abc_Print(i32 poison, ptr noundef nonnull %.str.12.sink)
  br label %.loopexit

.loopexit:                                        ; preds = %6, %10, %.loopexit.sink.split, %30
  %.157 = phi double [ %.056.ph130, %30 ], [ %.056.ph130, %.loopexit.sink.split ], [ %.056.ph130, %6 ], [ %16, %10 ]
  %66 = tail call i64 @fwrite(ptr nonnull @.str.25, i64 51, i64 1, ptr %5)
  %67 = tail call i64 @fwrite(ptr nonnull @.str.26, i64 48, i64 1, ptr %5)
  %68 = tail call i64 @fwrite(ptr nonnull @.str.27, i64 56, i64 1, ptr %5)
  %69 = tail call i64 @fwrite(ptr nonnull @.str.28, i64 58, i64 1, ptr %5)
  %70 = tail call i64 @fwrite(ptr nonnull @.str.29, i64 49, i64 1, ptr %5)
  %71 = tail call i32 (ptr, ptr, ...) @fprintf(ptr noundef %5, ptr noundef nonnull @.str.30, double noundef %.157) #8
  %72 = tail call i64 @fwrite(ptr nonnull @.str.31, i64 69, i64 1, ptr %5)
  %.not75 = icmp eq i32 %.054.ph134, 0
  %73 = select i1 %.not75, ptr @.str.34, ptr @.str.33
  %74 = tail call i32 (ptr, ptr, ...) @fprintf(ptr noundef %5, ptr noundef nonnull @.str.32, ptr noundef nonnull %73) #8
  %.not76 = icmp eq i32 %.0, 0
  %75 = select i1 %.not76, ptr @.str.34, ptr @.str.33
  %76 = tail call i32 (ptr, ptr, ...) @fprintf(ptr noundef %5, ptr noundef nonnull @.str.35, ptr noundef nonnull %75) #8
  %77 = tail call i64 @fwrite(ptr nonnull @.str.36, i64 34, i64 1, ptr %5)
  br label %78

78:                                               ; preds = %.loopexit, %65, %63, %49, %44
  %.053 = phi i32 [ 1, %.loopexit ], [ 1, %44 ], [ 1, %49 ], [ 1, %63 ], [ 0, %65 ]
  ret i32 %.053
}